; Function Attrs: mustprogress nounwind uwtable
define internal fastcc noundef zeroext i1 @_ZN5clang19RecursiveASTVisitorIZNK12_GLOBAL__N_125UncountedLocalVarsChecker12checkASTDeclEPKNS_19TranslationUnitDeclERNS_4ento15AnalysisManagerERNS6_11BugReporterEE12LocalVisitorE22TraverseObjCObjectTypeEPNS_14ObjCObjectTypeE(ptr noundef nonnull align 1 dereferenceable(1) %0, ptr noundef readonly %1) unnamed_addr #0 align 2 {
  %3 = getelementptr inbounds nuw i8, ptr %1, i64 24
  %.sroa.0.0.copyload.i = load i64, ptr %3, align 8
  %4 = and i64 %.sroa.0.0.copyload.i, -16
  %5 = inttoptr i64 %4 to ptr
  %6 = load ptr, ptr %5, align 16
  %.not = icmp eq ptr %6, %1
  br i1 %.not, label %9, label %7

7:                                                ; preds = %2
  %8 = tail call fastcc noundef zeroext i1 @_ZN5clang19RecursiveASTVisitorIZNK12_GLOBAL__N_125UncountedLocalVarsChecker12checkASTDeclEPKNS_19TranslationUnitDeclERNS_4ento15AnalysisManagerERNS6_11BugReporterEE12LocalVisitorE12TraverseTypeENS_8QualTypeE(ptr noundef nonnull align 1 dereferenceable(1) %0, i64 %.sroa.0.0.copyload.i)
  br i1 %8, label %9, label %.loopexit

9:                                                ; preds = %7, %2
  %10 = getelementptr inbounds nuw i8, ptr %1, i64 16
  %11 = load i32, ptr %10, align 16
  %12 = lshr i32 %11, 19
  %13 = and i32 %12, 127
  %14 = shl nuw nsw i32 %13, 3
  %.idx = zext nneg i32 %14 to i64
  %15 = getelementptr inbounds nuw i8, ptr %1, i64 %.idx
  %.ptr26 = getelementptr inbounds nuw i8, ptr %15, i64 48
  %.not1822 = icmp eq i32 %13, 0
  br i1 %.not1822, label %.loopexit, label %.lr.ph.preheader

.lr.ph.preheader:                                 ; preds = %9
  %.ptr = getelementptr inbounds nuw i8, ptr %1, i64 48
  br label %.lr.ph

.lr.ph:                                           ; preds = %.lr.ph, %.lr.ph.preheader
  %.01623 = phi ptr [ %.ptr, %.lr.ph.preheader ], [ %17, %.lr.ph ]
  %.sroa.01.0.copyload = load i64, ptr %.01623, align 8
  %16 = tail call fastcc noundef zeroext i1 @_ZN5clang19RecursiveASTVisitorIZNK12_GLOBAL__N_125UncountedLocalVarsChecker12checkASTDeclEPKNS_19TranslationUnitDeclERNS_4ento15AnalysisManagerERNS6_11BugReporterEE12LocalVisitorE12TraverseTypeENS_8QualTypeE(ptr noundef nonnull align 1 dereferenceable(1) %0, i64 %.sroa.01.0.copyload)
  %17 = getelementptr inbounds nuw i8, ptr %.01623, i64 8
  %.not18 = icmp ne ptr %17, %.ptr26
  %or.cond.not = select i1 %16, i1 %.not18, i1 false
  br i1 %or.cond.not, label %.lr.ph, label %.loopexit

.loopexit:                                        ; preds = %.lr.ph, %9, %7
  %.0 = phi i1 [ false, %7 ], [ true, %9 ], [ %16, %.lr.ph ]
  ret i1 %.0
}